target datalayout = "e-m:e-p270:32:32-p271:32:32-p272:64:64-i64:64-i128:128-f80:128-n8:16:32:64-S128"
target triple = "x86_64-pc-linux-gnu"

%struct.archive_read = type { %struct.archive, ptr, i32, i64, i64, %struct.archive_read_client, [16 x %struct.archive_read_filter_bidder], ptr, i32, i64, i32, i32, [16 x %struct.archive_format_descriptor], ptr, ptr, ptr, %struct.anon }
%struct.archive = type { i32, i32, ptr, i32, ptr, i32, i32, ptr, %struct.archive_string, ptr, i32, i32, ptr, ptr, i64, i64, i64, i8, i64 }
%struct.archive_string = type { ptr, i64, i64 }
%struct.archive_read_client = type { ptr, ptr, ptr, ptr, ptr, ptr, i32, i32, i64, ptr }
%struct.archive_read_filter_bidder = type { ptr, ptr, ptr }
%struct.archive_format_descriptor = type { ptr, ptr, ptr, ptr, ptr, ptr, ptr, ptr, ptr, ptr, ptr }
%struct.anon = type { ptr, ptr, i32, ptr, ptr }
%struct.cpio = type { i32, ptr, ptr, i64, i64, i64, i64, ptr, ptr, i32, i32 }

; Function Attrs: nounwind uwtable
define internal i32 @archive_read_format_cpio_read_data(ptr noundef %0, ptr noundef %1, ptr noundef %2, ptr noundef %3) #0 {
  %5 = alloca i32, align 4
  %6 = alloca ptr, align 8
  %7 = alloca ptr, align 8
  %8 = alloca ptr, align 8
  %9 = alloca ptr, align 8
  %10 = alloca i64, align 8
  %11 = alloca ptr, align 8
  %12 = alloca i32, align 4
  store ptr %0, ptr %6, align 8, !tbaa !9
  store ptr %1, ptr %7, align 8, !tbaa !47
  store ptr %2, ptr %8, align 8, !tbaa !50
  store ptr %3, ptr %9, align 8, !tbaa !50
  call void @llvm.lifetime.start.p0(i64 8, ptr %10) #8
  call void @llvm.lifetime.start.p0(i64 8, ptr %11) #8
  %13 = load ptr, ptr %6, align 8, !tbaa !9
  %14 = getelementptr inbounds nuw %struct.archive_read, ptr %13, i32 0, i32 13
  %15 = load ptr, ptr %14, align 8, !tbaa !20
  %16 = getelementptr inbounds nuw %struct.archive_format_descriptor, ptr %15, i32 0, i32 0
  %17 = load ptr, ptr %16, align 8, !tbaa !35
  store ptr %17, ptr %11, align 8, !tbaa !13
  %18 = load ptr, ptr %11, align 8, !tbaa !13
  %19 = getelementptr inbounds nuw %struct.cpio, ptr %18, i32 0, i32 4
  %20 = load i64, ptr %19, align 8, !tbaa !52
  %21 = icmp ne i64 %20, 0
  br i1 %21, label %22, label %30

22:                                               ; preds = %4
  %23 = load ptr, ptr %6, align 8, !tbaa !9
  %24 = load ptr, ptr %11, align 8, !tbaa !13
  %25 = getelementptr inbounds nuw %struct.cpio, ptr %24, i32 0, i32 4
  %26 = load i64, ptr %25, align 8, !tbaa !52
  %27 = call i64 @__archive_read_consume(ptr noundef %23, i64 noundef %26)
  %28 = load ptr, ptr %11, align 8, !tbaa !13
  %29 = getelementptr inbounds nuw %struct.cpio, ptr %28, i32 0, i32 4
  store i64 0, ptr %29, align 8, !tbaa !52
  br label %30

30:                                               ; preds = %22, %4
  %31 = load ptr, ptr %11, align 8, !tbaa !13
  %32 = getelementptr inbounds nuw %struct.cpio, ptr %31, i32 0, i32 3
  %33 = load i64, ptr %32, align 8, !tbaa !49
  %34 = icmp sgt i64 %33, 0
  br i1 %34, label %35, label %72

35:                                               ; preds = %30
  %36 = load ptr, ptr %6, align 8, !tbaa !9
  %37 = call ptr @__archive_read_ahead(ptr noundef %36, i64 noundef 1, ptr noundef %10)
  %38 = load ptr, ptr %7, align 8, !tbaa !47
  store ptr %37, ptr %38, align 8, !tbaa !47
  %39 = load i64, ptr %10, align 8, !tbaa !46
  %40 = icmp sle i64 %39, 0
  br i1 %40, label %41, label %42

41:                                               ; preds = %35
  store i32 -30, ptr %5, align 4
  store i32 1, ptr %12, align 4
  br label %92

42:                                               ; preds = %35
  %43 = load i64, ptr %10, align 8, !tbaa !46
  %44 = load ptr, ptr %11, align 8, !tbaa !13
  %45 = getelementptr inbounds nuw %struct.cpio, ptr %44, i32 0, i32 3
  %46 = load i64, ptr %45, align 8, !tbaa !49
  %47 = icmp sgt i64 %43, %46
  br i1 %47, label %48, label %52

48:                                               ; preds = %42
  %49 = load ptr, ptr %11, align 8, !tbaa !13
  %50 = getelementptr inbounds nuw %struct.cpio, ptr %49, i32 0, i32 3
  %51 = load i64, ptr %50, align 8, !tbaa !49
  store i64 %51, ptr %10, align 8, !tbaa !46
  br label %52

52:                                               ; preds = %48, %42
  %53 = load i64, ptr %10, align 8, !tbaa !46
  %54 = load ptr, ptr %8, align 8, !tbaa !50
  store i64 %53, ptr %54, align 8, !tbaa !46
  %55 = load i64, ptr %10, align 8, !tbaa !46
  %56 = load ptr, ptr %11, align 8, !tbaa !13
  %57 = getelementptr inbounds nuw %struct.cpio, ptr %56, i32 0, i32 4
  store i64 %55, ptr %57, align 8, !tbaa !52
  %58 = load ptr, ptr %11, align 8, !tbaa !13
  %59 = getelementptr inbounds nuw %struct.cpio, ptr %58, i32 0, i32 5
  %60 = load i64, ptr %59, align 8, !tbaa !48
  %61 = load ptr, ptr %9, align 8, !tbaa !50
  store i64 %60, ptr %61, align 8, !tbaa !46
  %62 = load i64, ptr %10, align 8, !tbaa !46
  %63 = load ptr, ptr %11, align 8, !tbaa !13
  %64 = getelementptr inbounds nuw %struct.cpio, ptr %63, i32 0, i32 5
  %65 = load i64, ptr %64, align 8, !tbaa !48
  %66 = add nsw i64 %65, %62
  store i64 %66, ptr %64, align 8, !tbaa !48
  %67 = load i64, ptr %10, align 8, !tbaa !46
  %68 = load ptr, ptr %11, align 8, !tbaa !13
  %69 = getelementptr inbounds nuw %struct.cpio, ptr %68, i32 0, i32 3
  %70 = load i64, ptr %69, align 8, !tbaa !49
  %71 = sub nsw i64 %70, %67
  store i64 %71, ptr %69, align 8, !tbaa !49
  store i32 0, ptr %5, align 4
  store i32 1, ptr %12, align 4
  br label %92

72:                                               ; preds = %30
  %73 = load ptr, ptr %11, align 8, !tbaa !13
  %74 = getelementptr inbounds nuw %struct.cpio, ptr %73, i32 0, i32 6
  %75 = load i64, ptr %74, align 8, !tbaa !53
  %76 = load ptr, ptr %6, align 8, !tbaa !9
  %77 = load ptr, ptr %11, align 8, !tbaa !13
  %78 = getelementptr inbounds nuw %struct.cpio, ptr %77, i32 0, i32 6
  %79 = load i64, ptr %78, align 8, !tbaa !53
  %80 = call i64 @__archive_read_consume(ptr noundef %76, i64 noundef %79)
  %81 = icmp ne i64 %75, %80
  br i1 %81, label %82, label %83

82:                                               ; preds = %72
  store i32 -30, ptr %5, align 4
  store i32 1, ptr %12, align 4
  br label %92

83:                                               ; preds = %72
  %84 = load ptr, ptr %11, align 8, !tbaa !13
  %85 = getelementptr inbounds nuw %struct.cpio, ptr %84, i32 0, i32 6
  store i64 0, ptr %85, align 8, !tbaa !53
  %86 = load ptr, ptr %7, align 8, !tbaa !47
  store ptr null, ptr %86, align 8, !tbaa !47
  %87 = load ptr, ptr %8, align 8, !tbaa !50
  store i64 0, ptr %87, align 8, !tbaa !46
  %88 = load ptr, ptr %11, align 8, !tbaa !13
  %89 = getelementptr inbounds nuw %struct.cpio, ptr %88, i32 0, i32 5
  %90 = load i64, ptr %89, align 8, !tbaa !48
  %91 = load ptr, ptr %9, align 8, !tbaa !50
  store i64 %90, ptr %91, align 8, !tbaa !46
  store i32 1, ptr %5, align 4
  store i32 1, ptr %12, align 4
  br label %92

92:                                               ; preds = %83, %82, %52, %41
  call void @llvm.lifetime.end.p0(i64 8, ptr %11) #8
  call void @llvm.lifetime.end.p0(i64 8, ptr %10) #8
  %93 = load i32, ptr %5, align 4
  ret i32 %93
}