; Function Attrs: nounwind uwtable
define internal range(i32 -30, 2) i32 @archive_read_format_cpio_read_data(ptr noundef %0, ptr noundef writeonly captures(none) %1, ptr noundef writeonly captures(none) %2, ptr noundef writeonly captures(none) %3) #0 {
  %5 = alloca i64, align 8
  call void @llvm.lifetime.start.p0(i64 8, ptr nonnull %5) #12
  %6 = getelementptr inbounds nuw i8, ptr %0, i64 2072
  %7 = load ptr, ptr %6, align 8, !tbaa !13
  %8 = load ptr, ptr %7, align 8, !tbaa !28
  %9 = getelementptr inbounds nuw i8, ptr %8, i64 32
  %10 = load i64, ptr %9, align 8, !tbaa !51
  %.not = icmp eq i64 %10, 0
  br i1 %.not, label %13, label %11

11:                                               ; preds = %4
  %12 = tail call i64 @__archive_read_consume(ptr noundef nonnull %0, i64 noundef %10) #12
  store i64 0, ptr %9, align 8, !tbaa !51
  br label %13

13:                                               ; preds = %11, %4
  %14 = getelementptr inbounds nuw i8, ptr %8, i64 24
  %15 = load i64, ptr %14, align 8, !tbaa !39
  %16 = icmp sgt i64 %15, 0
  br i1 %16, label %17, label %28

17:                                               ; preds = %13
  %18 = call ptr @__archive_read_ahead(ptr noundef nonnull %0, i64 noundef 1, ptr noundef nonnull %5) #12
  store ptr %18, ptr %1, align 8, !tbaa !52
  %19 = load i64, ptr %5, align 8, !tbaa !36
  %20 = icmp slt i64 %19, 1
  br i1 %20, label %35, label %21

21:                                               ; preds = %17
  %22 = load i64, ptr %14, align 8, !tbaa !39
  %spec.select = call i64 @llvm.smin.i64(i64 %19, i64 %22)
  store i64 %spec.select, ptr %2, align 8, !tbaa !36
  store i64 %spec.select, ptr %9, align 8, !tbaa !51
  %23 = getelementptr inbounds nuw i8, ptr %8, i64 40
  %24 = load i64, ptr %23, align 8, !tbaa !38
  store i64 %24, ptr %3, align 8, !tbaa !36
  %25 = add nsw i64 %24, %spec.select
  store i64 %25, ptr %23, align 8, !tbaa !38
  %26 = load i64, ptr %14, align 8, !tbaa !39
  %27 = sub nsw i64 %26, %spec.select
  store i64 %27, ptr %14, align 8, !tbaa !39
  br label %35

28:                                               ; preds = %13
  %29 = getelementptr inbounds nuw i8, ptr %8, i64 48
  %30 = load i64, ptr %29, align 8, !tbaa !53
  %31 = tail call i64 @__archive_read_consume(ptr noundef nonnull %0, i64 noundef %30) #12
  %.not27 = icmp eq i64 %30, %31
  br i1 %.not27, label %32, label %35

32:                                               ; preds = %28
  store i64 0, ptr %29, align 8, !tbaa !53
  store ptr null, ptr %1, align 8, !tbaa !52
  store i64 0, ptr %2, align 8, !tbaa !36
  %33 = getelementptr inbounds nuw i8, ptr %8, i64 40
  %34 = load i64, ptr %33, align 8, !tbaa !38
  store i64 %34, ptr %3, align 8, !tbaa !36
  br label %35

35:                                               ; preds = %28, %17, %32, %21
  %.0 = phi i32 [ 0, %21 ], [ 1, %32 ], [ -30, %17 ], [ -30, %28 ]
  call void @llvm.lifetime.end.p0(i64 8, ptr nonnull %5) #12
  ret i32 %.0
}